target datalayout = "e-m:e-p270:32:32-p271:32:32-p272:64:64-i64:64-i128:128-f80:128-n8:16:32:64-S128"
target triple = "x86_64-pc-linux-gnu"

%struct.IPSourceFilters = type { i32, i32, ptr, ptr }

; Function Attrs: nounwind uwtable
define void @ff_ip_reset_filters(ptr noundef %0) #0 {
  %2 = alloca ptr, align 8
  store ptr %0, ptr %2, align 8, !tbaa !9
  %3 = load ptr, ptr %2, align 8, !tbaa !9
  %4 = getelementptr inbounds nuw %struct.IPSourceFilters, ptr %3, i32 0, i32 3
  call void @av_freep(ptr noundef %4)
  %5 = load ptr, ptr %2, align 8, !tbaa !9
  %6 = getelementptr inbounds nuw %struct.IPSourceFilters, ptr %5, i32 0, i32 2
  call void @av_freep(ptr noundef %6)
  %7 = load ptr, ptr %2, align 8, !tbaa !9
  %8 = getelementptr inbounds nuw %struct.IPSourceFilters, ptr %7, i32 0, i32 0
  store i32 0, ptr %8, align 8, !tbaa !18
  %9 = load ptr, ptr %2, align 8, !tbaa !9
  %10 = getelementptr inbounds nuw %struct.IPSourceFilters, ptr %9, i32 0, i32 1
  store i32 0, ptr %10, align 4, !tbaa !11
  ret void
}